; Function Attrs: mustprogress nounwind uwtable
define internal fastcc void @_ZN12_GLOBAL__N_111DeclPrinter22printTemplateArgumentsEN4llvm8ArrayRefIN5clang16TemplateArgumentEEEPKNS3_21TemplateParameterListE(ptr noundef nonnull align 8 dereferenceable(37) %0, ptr %1, i64 %2, ptr noundef %3) unnamed_addr #0 align 2 {
  %5 = load ptr, ptr %0, align 8
  %6 = getelementptr inbounds nuw i8, ptr %5, i64 24
  %7 = load ptr, ptr %6, align 8
  %8 = getelementptr inbounds nuw i8, ptr %5, i64 32
  %9 = load ptr, ptr %8, align 8
  %10 = icmp eq ptr %7, %9
  br i1 %10, label %11, label %13

11:                                               ; preds = %4
  %12 = tail call noundef nonnull align 8 dereferenceable(48) ptr @_ZN4llvm11raw_ostream5writeEPKcm(ptr noundef nonnull align 8 dereferenceable(48) %5, ptr noundef nonnull @.str.51, i64 noundef 1) #14
  br label %_ZN4llvm11raw_ostreamlsEPKc.exit

13:                                               ; preds = %4
  store i8 60, ptr %9, align 1
  %14 = load ptr, ptr %8, align 8
  %15 = getelementptr inbounds i8, ptr %14, i64 1
  store ptr %15, ptr %8, align 8
  br label %_ZN4llvm11raw_ostreamlsEPKc.exit

_ZN4llvm11raw_ostreamlsEPKc.exit:                 ; preds = %11, %13
  %.not19 = icmp eq i64 %2, 0
  br i1 %.not19, label %._crit_edge, label %.lr.ph

.lr.ph:                                           ; preds = %_ZN4llvm11raw_ostreamlsEPKc.exit
  %.not10 = icmp eq ptr %3, null
  %16 = getelementptr inbounds nuw i8, ptr %0, i64 8
  br i1 %.not10, label %.lr.ph.split.us, label %.lr.ph.split

.lr.ph.split.us:                                  ; preds = %.lr.ph, %_ZN4llvm11raw_ostreamlsEPKc.exit13.us
  %.018.us = phi i64 [ %34, %_ZN4llvm11raw_ostreamlsEPKc.exit13.us ], [ 0, %.lr.ph ]
  %.not.us = icmp eq i64 %.018.us, 0
  br i1 %.not.us, label %_ZN4llvm11raw_ostreamlsEPKc.exit13.us, label %17

17:                                               ; preds = %.lr.ph.split.us
  %18 = load ptr, ptr %0, align 8
  %19 = getelementptr inbounds nuw i8, ptr %18, i64 24
  %20 = load ptr, ptr %19, align 8
  %21 = getelementptr inbounds nuw i8, ptr %18, i64 32
  %22 = load ptr, ptr %21, align 8
  %23 = ptrtoint ptr %20 to i64
  %24 = ptrtoint ptr %22 to i64
  %25 = sub i64 %23, %24
  %26 = icmp ult i64 %25, 2
  br i1 %26, label %30, label %27

27:                                               ; preds = %17
  store i16 8236, ptr %22, align 1
  %28 = load ptr, ptr %21, align 8
  %29 = getelementptr inbounds i8, ptr %28, i64 2
  store ptr %29, ptr %21, align 8
  br label %_ZN4llvm11raw_ostreamlsEPKc.exit13.us

30:                                               ; preds = %17
  %31 = tail call noundef nonnull align 8 dereferenceable(48) ptr @_ZN4llvm11raw_ostream5writeEPKcm(ptr noundef nonnull align 8 dereferenceable(48) %18, ptr noundef nonnull @.str, i64 noundef 2) #14
  br label %_ZN4llvm11raw_ostreamlsEPKc.exit13.us

_ZN4llvm11raw_ostreamlsEPKc.exit13.us:            ; preds = %30, %27, %.lr.ph.split.us
  %32 = getelementptr inbounds %"class.clang::TemplateArgument", ptr %1, i64 %.018.us
  %33 = load ptr, ptr %0, align 8
  tail call void @_ZNK5clang16TemplateArgument5printERKNS_14PrintingPolicyERN4llvm11raw_ostreamEb(ptr noundef nonnull align 8 dereferenceable(24) %32, ptr noundef nonnull align 8 dereferenceable(16) %16, ptr noundef nonnull align 8 dereferenceable(48) %33, i1 noundef zeroext true) #14
  %34 = add nuw i64 %.018.us, 1
  %exitcond21.not = icmp eq i64 %34, %2
  br i1 %exitcond21.not, label %._crit_edge, label %.lr.ph.split.us, !llvm.loop !51

.lr.ph.split:                                     ; preds = %.lr.ph, %_ZN4llvm11raw_ostreamlsEPKc.exit13
  %.018 = phi i64 [ %54, %_ZN4llvm11raw_ostreamlsEPKc.exit13 ], [ 0, %.lr.ph ]
  %.not = icmp eq i64 %.018, 0
  br i1 %.not, label %_ZN4llvm11raw_ostreamlsEPKc.exit13, label %35

35:                                               ; preds = %.lr.ph.split
  %36 = load ptr, ptr %0, align 8
  %37 = getelementptr inbounds nuw i8, ptr %36, i64 24
  %38 = load ptr, ptr %37, align 8
  %39 = getelementptr inbounds nuw i8, ptr %36, i64 32
  %40 = load ptr, ptr %39, align 8
  %41 = ptrtoint ptr %38 to i64
  %42 = ptrtoint ptr %40 to i64
  %43 = sub i64 %41, %42
  %44 = icmp ult i64 %43, 2
  br i1 %44, label %45, label %47

45:                                               ; preds = %35
  %46 = tail call noundef nonnull align 8 dereferenceable(48) ptr @_ZN4llvm11raw_ostream5writeEPKcm(ptr noundef nonnull align 8 dereferenceable(48) %36, ptr noundef nonnull @.str, i64 noundef 2) #14
  br label %_ZN4llvm11raw_ostreamlsEPKc.exit13

47:                                               ; preds = %35
  store i16 8236, ptr %40, align 1
  %48 = load ptr, ptr %39, align 8
  %49 = getelementptr inbounds i8, ptr %48, i64 2
  store ptr %49, ptr %39, align 8
  br label %_ZN4llvm11raw_ostreamlsEPKc.exit13

_ZN4llvm11raw_ostreamlsEPKc.exit13:               ; preds = %47, %45, %.lr.ph.split
  %50 = getelementptr inbounds %"class.clang::TemplateArgument", ptr %1, i64 %.018
  %51 = load ptr, ptr %0, align 8
  %52 = trunc i64 %.018 to i32
  %53 = tail call noundef zeroext i1 @_ZN5clang21TemplateParameterList28shouldIncludeTypeForArgumentERKNS_14PrintingPolicyEPKS0_j(ptr noundef nonnull align 8 dereferenceable(16) %16, ptr noundef nonnull %3, i32 noundef %52) #14
  tail call void @_ZNK5clang16TemplateArgument5printERKNS_14PrintingPolicyERN4llvm11raw_ostreamEb(ptr noundef nonnull align 8 dereferenceable(24) %50, ptr noundef nonnull align 8 dereferenceable(16) %16, ptr noundef nonnull align 8 dereferenceable(48) %51, i1 noundef zeroext %53) #14
  %54 = add nuw i64 %.018, 1
  %exitcond.not = icmp eq i64 %54, %2
  br i1 %exitcond.not, label %._crit_edge, label %.lr.ph.split, !llvm.loop !51

._crit_edge:                                      ; preds = %_ZN4llvm11raw_ostreamlsEPKc.exit13, %_ZN4llvm11raw_ostreamlsEPKc.exit13.us, %_ZN4llvm11raw_ostreamlsEPKc.exit
  %55 = load ptr, ptr %0, align 8
  %56 = getelementptr inbounds nuw i8, ptr %55, i64 24
  %57 = load ptr, ptr %56, align 8
  %58 = getelementptr inbounds nuw i8, ptr %55, i64 32
  %59 = load ptr, ptr %58, align 8
  %60 = icmp eq ptr %57, %59
  br i1 %60, label %61, label %63

61:                                               ; preds = %._crit_edge
  %62 = tail call noundef nonnull align 8 dereferenceable(48) ptr @_ZN4llvm11raw_ostream5writeEPKcm(ptr noundef nonnull align 8 dereferenceable(48) %55, ptr noundef nonnull @.str.54, i64 noundef 1) #14
  br label %_ZN4llvm11raw_ostreamlsEPKc.exit16

63:                                               ; preds = %._crit_edge
  store i8 62, ptr %59, align 1
  %64 = load ptr, ptr %58, align 8
  %65 = getelementptr inbounds i8, ptr %64, i64 1
  store ptr %65, ptr %58, align 8
  br label %_ZN4llvm11raw_ostreamlsEPKc.exit16

_ZN4llvm11raw_ostreamlsEPKc.exit16:               ; preds = %61, %63
  ret void
}